target datalayout = "e-m:e-p270:32:32-p271:32:32-p272:64:64-i64:64-i128:128-f80:128-n8:16:32:64-S128"
target triple = "x86_64-pc-linux-gnu"

@.str.118 = private unnamed_addr constant [13 x i8] c"%08X%08X%08X\00", align 1

; Function Attrs: inlinehint nounwind uwtable
define internal void @XLogFileName(ptr noundef %0, i32 noundef %1, i64 noundef %2, i32 noundef %3) #6 {
  %5 = alloca ptr, align 8
  %6 = alloca i32, align 4
  %7 = alloca i64, align 8
  %8 = alloca i32, align 4
  store ptr %0, ptr %5, align 8
  store i32 %1, ptr %6, align 4
  store i64 %2, ptr %7, align 8
  store i32 %3, ptr %8, align 4
  %9 = load ptr, ptr %5, align 8
  %10 = load i32, ptr %6, align 4
  %11 = load i64, ptr %7, align 8
  %12 = load i32, ptr %8, align 4
  %13 = sext i32 %12 to i64
  %14 = udiv i64 4294967296, %13
  %15 = udiv i64 %11, %14
  %16 = trunc i64 %15 to i32
  %17 = load i64, ptr %7, align 8
  %18 = load i32, ptr %8, align 4
  %19 = sext i32 %18 to i64
  %20 = udiv i64 4294967296, %19
  %21 = urem i64 %17, %20
  %22 = trunc i64 %21 to i32
  %23 = call i32 (ptr, i64, ptr, ...) @pg_snprintf(ptr noundef %9, i64 noundef 64, ptr noundef @.str.118, i32 noundef %10, i32 noundef %16, i32 noundef %22)
  ret void
}