; Function Attrs: inlinehint nounwind uwtable
define internal fastcc void @XLogFileName(ptr noundef nonnull %0, i32 noundef %1, i64 noundef %2, i32 noundef %3) unnamed_addr #10 {
  %5 = sext i32 %3 to i64
  %6 = udiv i64 4294967296, %5
  %7 = udiv i64 %2, %6
  %8 = trunc i64 %7 to i32
  %9 = urem i64 %2, %6
  %10 = trunc nuw i64 %9 to i32
  %11 = tail call i32 (ptr, i64, ptr, ...) @pg_snprintf(ptr noundef nonnull %0, i64 noundef 64, ptr noundef nonnull @.str.118, i32 noundef %1, i32 noundef %8, i32 noundef %10) #26
  ret void
}